; Function Attrs: nounwind uwtable
define dso_local ptr @ExecFetchSlotMinimalTuple(ptr noundef %0, ptr noundef writeonly captures(address_is_null) %1) local_unnamed_addr #1 {
  %3 = getelementptr inbounds nuw i8, ptr %0, i64 8
  %4 = load ptr, ptr %3, align 8
  %5 = getelementptr inbounds nuw i8, ptr %4, i64 80
  %6 = load ptr, ptr %5, align 8
  %.not = icmp eq ptr %6, null
  %.not11 = icmp eq ptr %1, null
  br i1 %.not, label %9, label %7

7:                                                ; preds = %2
  br i1 %.not11, label %15, label %8

8:                                                ; preds = %7
  store i8 0, ptr %1, align 1
  %.pre = load ptr, ptr %3, align 8
  %.phi.trans.insert = getelementptr inbounds nuw i8, ptr %.pre, i64 80
  %.pre13 = load ptr, ptr %.phi.trans.insert, align 8
  br label %15

9:                                                ; preds = %2
  br i1 %.not11, label %11, label %10

10:                                               ; preds = %9
  store i8 1, ptr %1, align 1
  %.pre14 = load ptr, ptr %3, align 8
  br label %11

11:                                               ; preds = %10, %9
  %12 = phi ptr [ %.pre14, %10 ], [ %4, %9 ]
  %13 = getelementptr inbounds nuw i8, ptr %12, i64 96
  %14 = load ptr, ptr %13, align 8
  br label %15

15:                                               ; preds = %7, %8, %11
  %.sink = phi ptr [ %14, %11 ], [ %.pre13, %8 ], [ %6, %7 ]
  %16 = tail call ptr %.sink(ptr noundef nonnull %0) #14
  ret ptr %16
}